; Function Attrs: nounwind uwtable
define ptr @Abc_NtkBddToAdd_rec(ptr noundef %0, ptr noundef %1, i32 noundef %2, ptr noundef %3, i32 noundef %4) local_unnamed_addr #0 {
  %6 = alloca ptr, align 8
  %7 = call i32 @stmm_find_or_add(ptr noundef %3, ptr noundef %1, ptr noundef nonnull %6) #18
  %.not = icmp eq i32 %7, 0
  br i1 %.not, label %11, label %8

8:                                                ; preds = %5
  %9 = load ptr, ptr %6, align 8
  %10 = load ptr, ptr %9, align 8
  br label %68

11:                                               ; preds = %5
  %12 = load i32, ptr %1, align 8
  %13 = call i32 @Cudd_ReadSize(ptr noundef %0) #18
  %14 = sub nsw i32 %13, %2
  %.not29 = icmp slt i32 %12, %14
  br i1 %.not29, label %50, label %15

15:                                               ; preds = %11
  %16 = call ptr @Cudd_ReadLogicZero(ptr noundef %0) #18
  %17 = call ptr @Cudd_ReadOne(ptr noundef %0) #18
  %18 = icmp sgt i32 %2, 0
  br i1 %18, label %.lr.ph.i.preheader, label %Abc_NtkBddFindAddConst.exit

.lr.ph.i.preheader:                               ; preds = %15
  %19 = sext i32 %4 to i64
  %20 = ptrtoint ptr %1 to i64
  %21 = xor i64 %19, %20
  %22 = inttoptr i64 %21 to ptr
  br label %.lr.ph.i

.lr.ph.i:                                         ; preds = %.lr.ph.i.preheader, %43
  %.024.i = phi ptr [ %.1.i, %43 ], [ %22, %.lr.ph.i.preheader ]
  %.01723.i = phi i32 [ %47, %43 ], [ 0, %.lr.ph.i.preheader ]
  %.02022.i = phi i32 [ %.121.i, %43 ], [ 0, %.lr.ph.i.preheader ]
  %23 = ptrtoint ptr %.024.i to i64
  %24 = and i64 %23, 1
  %.not.i = icmp eq i64 %24, 0
  br i1 %.not.i, label %38, label %25

25:                                               ; preds = %.lr.ph.i
  %26 = and i64 %23, -2
  %27 = inttoptr i64 %26 to ptr
  %28 = getelementptr inbounds nuw i8, ptr %27, i64 16
  %29 = getelementptr inbounds nuw i8, ptr %27, i64 24
  %30 = load ptr, ptr %29, align 8
  %31 = ptrtoint ptr %30 to i64
  %32 = xor i64 %31, 1
  %33 = inttoptr i64 %32 to ptr
  %34 = load ptr, ptr %28, align 8
  %35 = ptrtoint ptr %34 to i64
  %36 = xor i64 %35, 1
  %37 = inttoptr i64 %36 to ptr
  br label %43

38:                                               ; preds = %.lr.ph.i
  %39 = getelementptr inbounds nuw i8, ptr %.024.i, i64 16
  %40 = getelementptr inbounds nuw i8, ptr %.024.i, i64 24
  %41 = load ptr, ptr %40, align 8
  %42 = load ptr, ptr %39, align 8
  br label %43

43:                                               ; preds = %38, %25
  %.019.i = phi ptr [ %33, %25 ], [ %41, %38 ]
  %.018.i = phi ptr [ %37, %25 ], [ %42, %38 ]
  %44 = icmp eq ptr %.019.i, %16
  %45 = shl nuw i32 1, %.01723.i
  %46 = select i1 %44, i32 %45, i32 0
  %.121.i = xor i32 %46, %.02022.i
  %.1.i = select i1 %44, ptr %.018.i, ptr %.019.i
  %47 = add nuw nsw i32 %.01723.i, 1
  %exitcond.not.i = icmp eq i32 %47, %2
  br i1 %exitcond.not.i, label %._crit_edge.loopexit.i, label %.lr.ph.i, !llvm.loop !43

._crit_edge.loopexit.i:                           ; preds = %43
  %48 = sitofp i32 %.121.i to double
  br label %Abc_NtkBddFindAddConst.exit

Abc_NtkBddFindAddConst.exit:                      ; preds = %15, %._crit_edge.loopexit.i
  %.020.lcssa.i = phi double [ 0.000000e+00, %15 ], [ %48, %._crit_edge.loopexit.i ]
  %49 = call ptr @Cudd_addConst(ptr noundef %0, double noundef %.020.lcssa.i) #18
  br label %66

50:                                               ; preds = %11
  %51 = getelementptr inbounds nuw i8, ptr %1, i64 16
  %52 = getelementptr inbounds nuw i8, ptr %1, i64 24
  %53 = load ptr, ptr %52, align 8
  %54 = ptrtoint ptr %53 to i64
  %55 = and i64 %54, -2
  %56 = inttoptr i64 %55 to ptr
  %57 = trunc i64 %54 to i32
  %58 = and i32 %57, 1
  %59 = xor i32 %58, %4
  %60 = call ptr @Abc_NtkBddToAdd_rec(ptr noundef %0, ptr noundef %56, i32 noundef %2, ptr noundef %3, i32 noundef %59)
  %61 = load ptr, ptr %51, align 8
  %62 = call ptr @Abc_NtkBddToAdd_rec(ptr noundef %0, ptr noundef %61, i32 noundef %2, ptr noundef %3, i32 noundef %4)
  %63 = load i32, ptr %1, align 8
  %64 = call ptr @Cudd_addIthVar(ptr noundef %0, i32 noundef %63) #18
  %65 = call ptr @Cudd_addIte(ptr noundef %0, ptr noundef %64, ptr noundef %62, ptr noundef %60) #18
  br label %66

66:                                               ; preds = %50, %Abc_NtkBddFindAddConst.exit
  %.sink = phi ptr [ %65, %50 ], [ %49, %Abc_NtkBddFindAddConst.exit ]
  call void @Cudd_Ref(ptr noundef %.sink) #18
  %67 = load ptr, ptr %6, align 8
  store ptr %.sink, ptr %67, align 8
  br label %68

68:                                               ; preds = %66, %8
  %.028 = phi ptr [ %10, %8 ], [ %.sink, %66 ]
  ret ptr %.028
}